	.text
	.file	"tools.c"
	.globl	multiply                        # -- Begin function multiply
	.p2align	4, 0x90
	.type	multiply,@function
multiply:                               # @multiply
	.cfi_startproc
# %bb.0:
	pushq	%rbp
	.cfi_def_cfa_offset 16
	.cfi_offset %rbp, -16
	movq	%rsp, %rbp
	.cfi_def_cfa_register %rbp
	movl	%edi, -4(%rbp)
	movl	%esi, -8(%rbp)
	movl	-4(%rbp), %eax
	imull	-8(%rbp), %eax
	popq	%rbp
	.cfi_def_cfa %rsp, 8
	retq
.Lfunc_end0:
	.size	multiply, .Lfunc_end0-multiply
	.cfi_endproc
                                        # -- End function
	.globl	noEncrypt                       # -- Begin function noEncrypt
	.p2align	4, 0x90
	.type	noEncrypt,@function
noEncrypt:                              # @noEncrypt
	.cfi_startproc
# %bb.0:
	pushq	%rbp
	.cfi_def_cfa_offset 16
	.cfi_offset %rbp, -16
	movq	%rsp, %rbp
	.cfi_def_cfa_register %rbp
	movb	%dil, %al
	movb	%al, -1(%rbp)
	movsbl	-1(%rbp), %eax
	popq	%rbp
	.cfi_def_cfa %rsp, 8
	retq
.Lfunc_end1:
	.size	noEncrypt, .Lfunc_end1-noEncrypt
	.cfi_endproc
                                        # -- End function
	.ident	"Ubuntu clang version 14.0.0-1ubuntu1.1"
	.section	".note.GNU-stack","",@progbits
	.addrsig
